(dp0
S'available_products'
p1
(lp2
((I0
I2
tp3
I1
tp4
a(g3
I2
tp5
a(g3
I0
tp6
a(g3
I3
tp7
asS'dimensions'
p8
(I5
I5
tp9
sS'warehouses'
p10
(lp11
g3
asS'clients'
p12
(lp13
(I0
I3
tp14
a(I0
I1
tp15
a(I4
I3
tp16
asS'initial_position'
p17
(I2
I1
tp18
sS'number_of_products'
p19
I4
sS'orders'
p20
(lp21
(g15
I0
tp22
a(g16
I3
tp23
a(g14
I0
tp24
as.