(dp0
S'available_products'
p1
(lp2
((I1
I14
tp3
I2
tp4
a(g3
I5
tp5
a((I8
I12
tp6
I1
tp7
a((I3
I10
tp8
I7
tp9
a(g3
I0
tp10
a(g8
I6
tp11
a(g6
I7
tp12
a(g6
I4
tp13
a(g8
I3
tp14
a(g8
I9
tp15
a(g3
I8
tp16
asS'dimensions'
p17
(I10
I15
tp18
sS'warehouses'
p19
(lp20
g8
ag3
ag6
asS'clients'
p21
(lp22
(I0
I10
tp23
a(I1
I12
tp24
a(I2
I5
tp25
a(I0
I4
tp26
a(I9
I6
tp27
a(I1
I10
tp28
a(I3
I3
tp29
a(I1
I9
tp30
a(I8
I9
tp31
a(I0
I6
tp32
asS'initial_position'
p33
(I8
I0
tp34
sS'number_of_products'
p35
I10
sS'orders'
p36
(lp37
(g27
I6
tp38
a(g29
I4
tp39
a(g29
I9
tp40
a(g31
I5
tp41
a(g26
I4
tp42
a(g23
I6
tp43
a(g28
I1
tp44
a(g25
I0
tp45
a(g27
I3
tp46
a(g28
I3
tp47
a(g31
I6
tp48
a(g30
I4
tp49
a(g23
I0
tp50
a(g25
I6
tp51
a(g27
I2
tp52
a(g31
I6
tp53
a(g24
I6
tp54
a(g30
I5
tp55
a(g32
I8
tp56
a(g31
I4
tp57
as.