(dp0
S'available_products'
p1
(lp2
((I6
I10
tp3
I7
tp4
a((I11
I9
tp5
I42
tp6
a((I5
I3
tp7
I29
tp8
a(g5
I4
tp9
a(g5
I37
tp10
a(g7
I46
tp11
a(g5
I9
tp12
a(g7
I48
tp13
a(g3
I10
tp14
a(g5
I0
tp15
a(g5
I26
tp16
a(g5
I33
tp17
a(g7
I3
tp18
a(g3
I15
tp19
a(g7
I21
tp20
a(g5
I12
tp21
a(g5
I45
tp22
a(g5
I17
tp23
a(g5
I36
tp24
a(g3
I11
tp25
a(g7
I41
tp26
a(g5
I8
tp27
a(g3
I2
tp28
a(g3
I28
tp29
a(g5
I32
tp30
a(g3
I23
tp31
a(g3
I14
tp32
a(g7
I20
tp33
a(g5
I25
tp34
a(g3
I19
tp35
a(g5
I16
tp36
a(g7
I6
tp37
a(g7
I40
tp38
a(g7
I43
tp39
a(g5
I40
tp40
a(g3
I31
tp41
a(g5
I28
tp42
a(g3
I22
tp43
a(g7
I13
tp44
a(g5
I24
tp45
a(g3
I44
tp46
a(g5
I38
tp47
a(g7
I1
tp48
a(g3
I39
tp49
a(g3
I30
tp50
a(g7
I18
tp51
a(g5
I5
tp52
a(g5
I34
tp53
a(g7
I47
tp54
a(g7
I49
tp55
a(g7
I12
tp56
a(g5
I1
tp57
a(g5
I27
tp58
a(g7
I35
tp59
asS'dimensions'
p60
(I20
I20
tp61
sS'warehouses'
p62
(lp63
g3
ag5
ag7
asS'clients'
p64
(lp65
(I12
I13
tp66
a(I11
I8
tp67
a(I11
I17
tp68
a(I1
I17
tp69
a(I5
I9
tp70
a(I9
I10
tp71
a(I0
I1
tp72
a(I9
I3
tp73
a(I18
I18
tp74
a(I11
I14
tp75
a(I19
I16
tp76
a(I19
I6
tp77
a(I11
I10
tp78
a(I18
I5
tp79
a(I3
I3
tp80
a(I16
I8
tp81
a(I6
I2
tp82
a(I16
I4
tp83
a(I8
I1
tp84
a(I2
I6
tp85
asS'initial_position'
p86
(I9
I9
tp87
sS'number_of_products'
p88
I50
sS'orders'
p89
(lp90
(g72
I18
tp91
a(g79
I35
tp92
a(g66
I47
tp93
a(g76
I44
tp94
a(g77
I32
tp95
a(g74
I49
tp96
a(g85
I41
tp97
a(g81
I21
tp98
a(g85
I44
tp99
a(g68
I6
tp100
a(g74
I13
tp101
a(g83
I38
tp102
a(g84
I7
tp103
a(g84
I40
tp104
a(g78
I15
tp105
a(g83
I3
tp106
a(g66
I36
tp107
a(g77
I44
tp108
a(g84
I2
tp109
a(g72
I23
tp110
a(g74
I10
tp111
a(g79
I48
tp112
a(g84
I23
tp113
a(g78
I12
tp114
a(g70
I0
tp115
a(g83
I0
tp116
a(g67
I10
tp117
a(g67
I15
tp118
a(g83
I48
tp119
a(g71
I1
tp120
a(g78
I7
tp121
a(g83
I13
tp122
a(g70
I27
tp123
a(g78
I1
tp124
a(g71
I6
tp125
a(g82
I31
tp126
a(g78
I11
tp127
a(g83
I27
tp128
a(g69
I23
tp129
a(g73
I19
tp130
a(g69
I37
tp131
a(g66
I7
tp132
a(g75
I12
tp133
a(g79
I3
tp134
a(g72
I2
tp135
a(g80
I14
tp136
a(g70
I5
tp137
a(g73
I43
tp138
a(g70
I32
tp139
a(g83
I17
tp140
as.