(dp0
S'available_products'
p1
(lp2
((I11
I8
tp3
I14
tp4
a((I18
I5
tp5
I5
tp6
a((I13
I12
tp7
I38
tp8
a(g3
I1
tp9
a(g5
I16
tp10
a((I5
I10
tp11
I14
tp12
a(g5
I47
tp13
a((I17
I5
tp14
I42
tp15
a((I10
I10
tp16
I48
tp17
a(g11
I24
tp18
a((I14
I14
tp19
I39
tp20
a(g5
I33
tp21
a((I10
I9
tp22
I12
tp23
a(g5
I11
tp24
a(g22
I3
tp25
a(g16
I27
tp26
a(g5
I6
tp27
a((I11
I0
tp28
I34
tp29
a(g19
I3
tp30
a(g7
I22
tp31
a(g16
I42
tp32
a(g3
I17
tp33
a(g5
I32
tp34
a(g22
I39
tp35
a(g11
I30
tp36
a(g28
I9
tp37
a((I14
I7
tp38
I26
tp39
a(g14
I48
tp40
a(g16
I13
tp41
a(g11
I46
tp42
a(g14
I37
tp43
a(g16
I30
tp44
a(g19
I21
tp45
a(g5
I27
tp46
a(g7
I44
tp47
a(g28
I47
tp48
a(g22
I19
tp49
a(g19
I6
tp50
a(g5
I22
tp51
a(g22
I45
tp52
a(g16
I41
tp53
a(g11
I13
tp54
a(g5
I37
tp55
a(g7
I6
tp56
a(g14
I25
tp57
a(g5
I3
tp58
a(g11
I18
tp59
a(g38
I12
tp60
a(g19
I41
tp61
a(g16
I16
tp62
a(g5
I1
tp63
a(g5
I48
tp64
a(g28
I25
tp65
a(g38
I42
tp66
a(g14
I32
tp67
a(g5
I28
tp68
a(g16
I35
tp69
a(g19
I5
tp70
a(g5
I43
tp71
a(g7
I28
tp72
a(g22
I46
tp73
a(g3
I43
tp74
a(g5
I38
tp75
a(g14
I4
tp76
a(g19
I35
tp77
a(g28
I0
tp78
a(g38
I17
tp79
a(g16
I10
tp80
a(g3
I6
tp81
a(g19
I44
tp82
a(g11
I6
tp83
a(g38
I28
tp84
a(g19
I28
tp85
a(g11
I32
tp86
a(g38
I47
tp87
a(g5
I17
tp88
a(g28
I41
tp89
a(g16
I38
tp90
a(g19
I17
tp91
a(g3
I21
tp92
a(g5
I44
tp93
a(g7
I1
tp94
a(g19
I15
tp95
a(g3
I40
tp96
a(g11
I25
tp97
a(g38
I11
tp98
a(g19
I8
tp99
a(g22
I13
tp100
a(g3
I25
tp101
a(g28
I16
tp102
a(g38
I33
tp103
a(g22
I0
tp104
a(g3
I12
tp105
a(g5
I7
tp106
a(g7
I40
tp107
a(g14
I46
tp108
a(g3
I31
tp109
a(g5
I18
tp110
a(g7
I23
tp111
a(g16
I37
tp112
a(g3
I18
tp113
a(g11
I3
tp114
a(g11
I48
tp115
a(g22
I25
tp116
a(g28
I7
tp117
a(g38
I8
tp118
a(g14
I2
tp119
a(g16
I3
tp120
a(g19
I37
tp121
a(g28
I10
tp122
a(g38
I27
tp123
a(g22
I14
tp124
a(g16
I12
tp125
a(g3
I23
tp126
a(g5
I13
tp127
a(g28
I29
tp128
a(g22
I29
tp129
a(g16
I25
tp130
a(g3
I9
tp131
a(g11
I5
tp132
a(g7
I45
tp133
a(g28
I32
tp134
a(g19
I1
tp135
a(g3
I47
tp136
a(g5
I34
tp137
a(g22
I33
tp138
a(g3
I34
tp139
a(g28
I4
tp140
a(g38
I13
tp141
a(g14
I13
tp142
a(g16
I6
tp143
a(g28
I23
tp144
a(g38
I24
tp145
a(g16
I19
tp146
a(g5
I14
tp147
a(g3
I27
tp148
a(g22
I30
tp149
a(g11
I9
tp150
a(g7
I46
tp151
a(g19
I4
tp152
a(g5
I40
tp153
a(g28
I48
tp154
a(g14
I22
tp155
a(g3
I30
tp156
a(g5
I39
tp157
a(g7
I8
tp158
a(g14
I23
tp159
a(g19
I34
tp160
a(g14
I33
tp161
a(g28
I1
tp162
a(g22
I49
tp163
a(g19
I47
tp164
a(g14
I30
tp165
a(g22
I4
tp166
a(g11
I12
tp167
a(g19
I25
tp168
a(g11
I33
tp169
a(g38
I40
tp170
a(g11
I4
tp171
a(g28
I42
tp172
a(g11
I15
tp173
a(g7
I30
tp174
a(g22
I40
tp175
a(g3
I41
tp176
a(g11
I2
tp177
a(g38
I23
tp178
a(g22
I1
tp179
a(g11
I38
tp180
a(g7
I41
tp181
a(g28
I36
tp182
a(g14
I45
tp183
a(g19
I29
tp184
a(g11
I49
tp185
a(g16
I36
tp186
a(g5
I46
tp187
a(g7
I3
tp188
a(g14
I28
tp189
a(g16
I49
tp190
a(g11
I31
tp191
a(g7
I14
tp192
a(g38
I9
tp193
a(g11
I47
tp194
a(g16
I2
tp195
a(g7
I48
tp196
a(g28
I11
tp197
a(g38
I20
tp198
a(g5
I10
tp199
a(g28
I30
tp200
a(g38
I39
tp201
a(g22
I2
tp202
a(g16
I24
tp203
a(g3
I10
tp204
a(g7
I42
tp205
a(g28
I33
tp206
a(g3
I49
tp207
a(g5
I30
tp208
a(g5
I20
tp209
a(g5
I8
tp210
a(g5
I35
tp211
a(g7
I4
tp212
a(g22
I38
tp213
a(g3
I35
tp214
a(g28
I5
tp215
a(g16
I1
tp216
a(g19
I43
tp217
a(g28
I8
tp218
a(g16
I18
tp219
a(g11
I0
tp220
a(g11
I45
tp221
a(g14
I16
tp222
a(g38
I36
tp223
a(g14
I38
tp224
a(g3
I15
tp225
a(g19
I26
tp226
a(g28
I46
tp227
a(g22
I9
tp228
a(g5
I41
tp229
a(g7
I26
tp230
a(g19
I2
tp231
a(g16
I46
tp232
a(g5
I36
tp233
a(g38
I0
tp234
a(g14
I26
tp235
a(g3
I0
tp236
a(g28
I2
tp237
a(g38
I19
tp238
a(g16
I4
tp239
a(g14
I36
tp240
a(g19
I46
tp241
a(g28
I21
tp242
a(g38
I30
tp243
a(g16
I17
tp244
a(g7
I37
tp245
a(g28
I24
tp246
a(g38
I41
tp247
a(g22
I24
tp248
a(g3
I4
tp249
a(g28
I43
tp250
a(g19
I10
tp251
a(g5
I42
tp252
a(g22
I41
tp253
a(g3
I42
tp254
a(g7
I10
tp255
a(g38
I5
tp256
a(g14
I5
tp257
a(g14
I1
tp258
a(g3
I8
tp259
a(g19
I32
tp260
a(g28
I15
tp261
a(g16
I11
tp262
a(g19
I45
tp263
a(g22
I6
tp264
asS'dimensions'
p265
(I20
I20
tp266
sS'warehouses'
p267
(lp268
g14
ag7
ag11
ag16
ag3
ag5
ag38
ag28
ag19
ag22
asS'clients'
p269
(lp270
(I4
I8
tp271
a(I15
I12
tp272
a(I16
I9
tp273
a(I4
I5
tp274
a(I18
I19
tp275
a(I4
I3
tp276
a(I2
I18
tp277
a(I1
I18
tp278
a(I16
I14
tp279
a(I18
I15
tp280
a(I6
I3
tp281
a(I8
I4
tp282
a(I18
I10
tp283
a(I6
I14
tp284
a(I9
I19
tp285
a(I5
I12
tp286
a(I6
I17
tp287
a(I14
I18
tp288
a(I12
I1
tp289
a(I9
I9
tp290
asS'initial_position'
p291
(I19
I19
tp292
sS'number_of_products'
p293
I50
sS'orders'
p294
(lp295
(g280
I21
tp296
a(g287
I1
tp297
a(g287
I25
tp298
a(g283
I28
tp299
a(g288
I25
tp300
a(g272
I34
tp301
a(g271
I18
tp302
a(g279
I35
tp303
a(g271
I37
tp304
a(g276
I42
tp305
a(g277
I0
tp306
a(g289
I8
tp307
a(g287
I1
tp308
a(g285
I37
tp309
a(g280
I28
tp310
a(g289
I14
tp311
a(g290
I37
tp312
a(g272
I7
tp313
a(g277
I20
tp314
a(g285
I23
tp315
a(g275
I3
tp316
a(g271
I22
tp317
a(g285
I19
tp318
a(g284
I9
tp319
a(g278
I48
tp320
a(g275
I42
tp321
a(g279
I0
tp322
a(g290
I14
tp323
a(g279
I17
tp324
a(g289
I29
tp325
a(g271
I25
tp326
a(g289
I34
tp327
a(g290
I5
tp328
a(g288
I5
tp329
a(g290
I28
tp330
a(g281
I2
tp331
a(g271
I27
tp332
a(g271
I6
tp333
a(g290
I22
tp334
a(g275
I32
tp335
a(g275
I43
tp336
a(g289
I45
tp337
a(g277
I4
tp338
a(g288
I37
tp339
a(g275
I14
tp340
a(g286
I5
tp341
a(g283
I40
tp342
a(g273
I11
tp343
a(g271
I25
tp344
a(g276
I33
tp345
a(g284
I16
tp346
a(g281
I4
tp347
a(g287
I14
tp348
a(g273
I23
tp349
a(g275
I4
tp350
a(g284
I28
tp351
a(g276
I35
tp352
a(g279
I45
tp353
a(g280
I29
tp354
a(g272
I30
tp355
a(g279
I5
tp356
a(g285
I46
tp357
a(g284
I28
tp358
a(g279
I16
tp359
a(g289
I19
tp360
a(g290
I15
tp361
a(g280
I37
tp362
a(g275
I16
tp363
a(g290
I19
tp364
a(g285
I37
tp365
as.