(dp0
S'available_products'
p1
(lp2
((I8
I3
tp3
I7
tp4
a((I3
I0
tp5
I3
tp6
a(g3
I9
tp7
a((I2
I0
tp8
I7
tp9
a(g3
I8
tp10
a(g5
I0
tp11
a(g8
I1
tp12
a((I8
I6
tp13
I7
tp14
a(g8
I2
tp15
a((I2
I4
tp16
I2
tp17
a(g16
I9
tp18
a(g5
I6
tp19
a(g5
I5
tp20
a(g3
I4
tp21
a(g8
I4
tp22
asS'dimensions'
p23
(I10
I10
tp24
sS'warehouses'
p25
(lp26
g5
ag8
ag3
ag16
ag13
asS'clients'
p27
(lp28
(I9
I4
tp29
a(I6
I5
tp30
a(I7
I9
tp31
a(I4
I5
tp32
a(I5
I2
tp33
a(I3
I8
tp34
asS'initial_position'
p35
(I6
I3
tp36
sS'number_of_products'
p37
I10
sS'orders'
p38
(lp39
(g29
I8
tp40
a(g29
I1
tp41
a(g32
I8
tp42
a(g33
I2
tp43
a(g33
I4
tp44
a(g31
I5
tp45
a(g33
I1
tp46
a(g33
I2
tp47
a(g31
I4
tp48
a(g32
I7
tp49
as.