(dp0
S'available_products'
p1
(lp2
((I15
I10
tp3
I43
tp4
a((I9
I1
tp5
I37
tp6
a((I7
I12
tp7
I44
tp8
a(g5
I32
tp9
a((I8
I2
tp10
I39
tp11
a((I1
I1
tp12
I10
tp13
a((I3
I5
tp14
I15
tp15
a((I4
I3
tp16
I47
tp17
a(g14
I17
tp18
a(g7
I9
tp19
a(g16
I36
tp20
a((I7
I11
tp21
I27
tp22
a(g12
I24
tp23
a(g16
I43
tp24
a(g3
I20
tp25
a(g16
I21
tp26
a(g10
I37
tp27
a(g16
I3
tp28
a(g10
I41
tp29
a(g5
I48
tp30
a(g21
I4
tp31
a(g5
I25
tp32
a(g14
I14
tp33
a(g21
I31
tp34
a(g3
I7
tp35
a(g10
I45
tp36
a(g3
I45
tp37
a(g3
I12
tp38
a(g21
I0
tp39
a(g5
I47
tp40
a(g21
I46
tp41
a(g5
I8
tp42
a(g16
I29
tp43
a((I6
I11
tp44
I49
tp45
a(g5
I3
tp46
a(g10
I2
tp47
a((I6
I5
tp48
I45
tp49
a(g5
I30
tp50
a(g14
I40
tp51
a(g48
I32
tp52
a(g12
I8
tp53
a(g5
I11
tp54
a(g10
I6
tp55
a(g12
I41
tp56
a(g5
I27
tp57
a(g16
I11
tp58
a(g44
I19
tp59
a(g14
I13
tp60
a(g16
I8
tp61
a(g10
I1
tp62
a(g10
I23
tp63
a(g7
I26
tp64
a(g14
I18
tp65
a(g7
I34
tp66
a(g48
I33
tp67
a(g44
I24
tp68
a(g3
I31
tp69
a(g10
I5
tp70
a(g5
I16
tp71
a(g5
I38
tp72
a(g16
I26
tp73
a(g5
I45
tp74
a(g48
I24
tp75
a(g48
I28
tp76
a(g14
I22
tp77
a(g48
I42
tp78
a(g10
I16
tp79
a(g12
I35
tp80
a(g5
I33
tp81
a(g21
I9
tp82
a(g14
I42
tp83
asS'dimensions'
p84
(I20
I15
tp85
sS'warehouses'
p86
(lp87
g10
ag7
ag3
ag44
ag16
ag5
ag21
ag12
ag48
ag14
asS'clients'
p88
(lp89
(I1
I11
tp90
a(I3
I6
tp91
a(I12
I13
tp92
a(I9
I12
tp93
a(I7
I8
tp94
a(I19
I2
tp95
a(I4
I8
tp96
a(I9
I13
tp97
a(I10
I6
tp98
a(I11
I5
tp99
asS'initial_position'
p100
(I17
I1
tp101
sS'number_of_products'
p102
I50
sS'orders'
p103
(lp104
(g91
I39
tp105
a(g99
I40
tp106
a(g91
I26
tp107
a(g92
I10
tp108
a(g92
I5
tp109
a(g93
I2
tp110
a(g97
I26
tp111
a(g96
I6
tp112
a(g95
I28
tp113
a(g90
I23
tp114
a(g94
I28
tp115
a(g95
I20
tp116
a(g91
I19
tp117
a(g95
I43
tp118
a(g98
I40
tp119
a(g91
I31
tp120
a(g98
I18
tp121
a(g97
I4
tp122
a(g96
I9
tp123
a(g97
I41
tp124
a(g96
I46
tp125
a(g91
I40
tp126
a(g99
I33
tp127
a(g99
I20
tp128
a(g94
I43
tp129
a(g95
I13
tp130
a(g92
I24
tp131
a(g97
I5
tp132
a(g91
I5
tp133
a(g95
I10
tp134
a(g96
I12
tp135
a(g98
I31
tp136
a(g98
I34
tp137
a(g98
I3
tp138
a(g93
I48
tp139
a(g95
I16
tp140
a(g93
I21
tp141
a(g95
I4
tp142
a(g90
I23
tp143
a(g92
I38
tp144
a(g96
I21
tp145
a(g90
I32
tp146
a(g95
I2
tp147
a(g91
I21
tp148
a(g99
I7
tp149
a(g98
I33
tp150
a(g91
I20
tp151
a(g96
I32
tp152
a(g90
I33
tp153
a(g90
I45
tp154
a(g99
I18
tp155
a(g95
I3
tp156
a(g92
I40
tp157
a(g96
I13
tp158
a(g90
I19
tp159
a(g90
I24
tp160
a(g98
I6
tp161
a(g97
I19
tp162
a(g96
I8
tp163
a(g99
I11
tp164
a(g92
I10
tp165
a(g90
I19
tp166
a(g99
I20
tp167
a(g95
I4
tp168
a(g91
I26
tp169
a(g94
I24
tp170
a(g92
I41
tp171
a(g93
I49
tp172
a(g93
I38
tp173
a(g95
I27
tp174
a(g93
I24
tp175
a(g96
I14
tp176
a(g94
I12
tp177
a(g90
I34
tp178
a(g91
I49
tp179
a(g96
I0
tp180
a(g97
I7
tp181
a(g93
I38
tp182
a(g94
I20
tp183
a(g98
I37
tp184
a(g91
I49
tp185
a(g92
I29
tp186
a(g94
I14
tp187
a(g95
I28
tp188
a(g92
I40
tp189
a(g99
I23
tp190
a(g93
I43
tp191
a(g97
I4
tp192
a(g98
I35
tp193
a(g90
I43
tp194
a(g92
I14
tp195
a(g98
I31
tp196
a(g94
I48
tp197
a(g99
I22
tp198
a(g91
I41
tp199
a(g94
I36
tp200
a(g93
I42
tp201
a(g99
I15
tp202
a(g90
I39
tp203
a(g94
I43
tp204
as.