(dp0
S'available_products'
p1
(lp2
((I1
I3
tp3
I0
tp4
a(g3
I1
tp5
a((I0
I3
tp6
I3
tp7
a((I0
I2
tp8
I0
tp9
a(g6
I2
tp10
a(g3
I4
tp11
asS'dimensions'
p12
(I5
I5
tp13
sS'warehouses'
p14
(lp15
g6
ag3
ag8
asS'clients'
p16
(lp17
(I4
I2
tp18
a(I1
I1
tp19
a(I4
I3
tp20
asS'initial_position'
p21
(I1
I0
tp22
sS'number_of_products'
p23
I5
sS'orders'
p24
(lp25
(g18
I2
tp26
a(g18
I0
tp27
a(g20
I2
tp28
a(g18
I2
tp29
a(g19
I3
tp30
as.